; Function Attrs: nofree norecurse nosync nounwind memory(readwrite, inaccessiblemem: none) uwtable
define hidden i64 @SDL_NextAudioQueueIter(ptr noundef readnone captures(none) %0, ptr noundef captures(none) %1, ptr noundef writeonly captures(none) initializes((0, 12)) %2, ptr noundef writeonly captures(none) initializes((0, 8)) %3, ptr noundef writeonly captures(none) %4) local_unnamed_addr #7 {
  %6 = load ptr, ptr %1, align 8
  tail call void @llvm.memcpy.p0.p0.i64(ptr noundef nonnull align 4 dereferenceable(12) %2, ptr noundef nonnull align 8 dereferenceable(12) %6, i64 12, i1 false)
  %7 = getelementptr inbounds nuw i8, ptr %6, i64 16
  %8 = load ptr, ptr %7, align 8
  store ptr %8, ptr %3, align 8
  br label %9

9:                                                ; preds = %19, %5
  %.024 = phi i64 [ 0, %5 ], [ %20, %19 ]
  %.021 = phi ptr [ %6, %5 ], [ %12, %19 ]
  %.not = icmp eq ptr %.021, null
  br i1 %.not, label %.thread, label %10

10:                                               ; preds = %9
  %11 = getelementptr inbounds nuw i8, ptr %.021, i64 32
  %12 = load ptr, ptr %11, align 8
  %13 = getelementptr inbounds nuw i8, ptr %.021, i64 72
  %14 = load i64, ptr %13, align 8
  %15 = getelementptr inbounds nuw i8, ptr %.021, i64 64
  %16 = load i64, ptr %15, align 8
  %17 = sub i64 %14, %16
  %18 = xor i64 %.024, -1
  %.not28 = icmp ult i64 %17, %18
  br i1 %.not28, label %19, label %.thread

19:                                               ; preds = %10
  %20 = add i64 %17, %.024
  %21 = getelementptr inbounds nuw i8, ptr %.021, i64 24
  %22 = load i8, ptr %21, align 8, !range !7, !noundef !8
  %23 = trunc nuw i8 %22 to i1
  br i1 %23, label %.thread, label %9

.thread:                                          ; preds = %19, %10, %9
  %.125 = phi i64 [ %.024, %9 ], [ -1, %10 ], [ %20, %19 ]
  %.123 = phi i8 [ 0, %9 ], [ 0, %10 ], [ 1, %19 ]
  %.1 = phi ptr [ null, %9 ], [ %12, %10 ], [ %12, %19 ]
  store ptr %.1, ptr %1, align 8
  store i8 %.123, ptr %4, align 1
  ret i64 %.125
}